; Function Attrs: nounwind uwtable
define dso_local ptr @transformWhereClause(ptr noundef %0, ptr noundef %1, i32 noundef %2, ptr noundef %3) local_unnamed_addr #0 {
  %5 = icmp eq ptr %1, null
  br i1 %5, label %9, label %6

6:                                                ; preds = %4
  %7 = tail call ptr @transformExpr(ptr noundef %0, ptr noundef nonnull %1, i32 noundef %2) #9
  %8 = tail call ptr @coerce_to_boolean(ptr noundef %0, ptr noundef %7, ptr noundef %3) #9
  br label %9

9:                                                ; preds = %4, %6
  %.0 = phi ptr [ %8, %6 ], [ null, %4 ]
  ret ptr %.0
}